target datalayout = "e-m:e-p270:32:32-p271:32:32-p272:64:64-i64:64-i128:128-f80:128-n8:16:32:64-S128"
target triple = "x86_64-pc-linux-gnu"

%struct.txfm_param = type { i8, i8, i32, i32, i32, i8, i32 }

; Function Attrs: nounwind uwtable
define internal ptr @cast_to_int32(ptr noundef %0) #0 {
  %2 = alloca ptr, align 8
  store ptr %0, ptr %2, align 8
  %3 = load ptr, ptr %2, align 8
  ret ptr %3
}

; Function Attrs: nounwind uwtable
define hidden void @av1_highbd_inv_txfm_add_16x16_c(ptr noundef %0, ptr noundef %1, i32 noundef %2, ptr noundef %3) #0 {
  %5 = alloca ptr, align 8
  %6 = alloca ptr, align 8
  %7 = alloca i32, align 4
  %8 = alloca ptr, align 8
  %9 = alloca i32, align 4
  %10 = alloca i8, align 1
  %11 = alloca ptr, align 8
  store ptr %0, ptr %5, align 8
  store ptr %1, ptr %6, align 8
  store i32 %2, ptr %7, align 4
  store ptr %3, ptr %8, align 8
  %12 = load ptr, ptr %8, align 8
  %13 = getelementptr inbounds nuw %struct.txfm_param, ptr %12, i32 0, i32 3
  %14 = load i32, ptr %13, align 4
  store i32 %14, ptr %9, align 4
  %15 = load ptr, ptr %8, align 8
  %16 = getelementptr inbounds nuw %struct.txfm_param, ptr %15, i32 0, i32 0
  %17 = load i8, ptr %16, align 4
  store i8 %17, ptr %10, align 1
  %18 = load ptr, ptr %5, align 8
  %19 = call ptr @cast_to_int32(ptr noundef %18)
  store ptr %19, ptr %11, align 8
  %20 = load ptr, ptr %11, align 8
  %21 = load ptr, ptr %6, align 8
  %22 = ptrtoint ptr %21 to i64
  %23 = shl i64 %22, 1
  %24 = inttoptr i64 %23 to ptr
  %25 = load i32, ptr %7, align 4
  %26 = load i8, ptr %10, align 1
  %27 = load i32, ptr %9, align 4
  call void @av1_inv_txfm2d_add_16x16_c(ptr noundef %20, ptr noundef %24, i32 noundef %25, i8 noundef zeroext %26, i32 noundef %27)
  ret void
}